(lp0
ccopy_reg
_reconstructor
p1
(cfeatures
NearestCapsuleFeature
p2
c__builtin__
object
p3
Ntp4
Rp5
(dp6
S'weight'
p7
F-0.7870017093754603
sS'value'
p8
I23
sbag1
(cfeatures
NearestNormalGhostFeature
p9
g3
Ntp10
Rp11
(dp12
g7
F0.45365558261422145
sg8
F1.0
sbag1
(cfeatures
NearestScaredGhostFeature
p13
g3
Ntp14
Rp15
(dp16
g7
F-2.0671631707480236
sg8
I31
sbag1
(cfeatures
NearestFoodFeature
p17
g3
Ntp18
Rp19
(dp20
g7
F-1.2578509331213772
sg8
I1
sba.