(lp0
ccopy_reg
_reconstructor
p1
(cfeatures
NearestCapsuleFeature
p2
c__builtin__
object
p3
Ntp4
Rp5
(dp6
S'weight'
p7
F-1.300884619482527
sS'value'
p8
I13
sbag1
(cfeatures
NearestNormalGhostFeature
p9
g3
Ntp10
Rp11
(dp12
g7
F0.0011517531561180544
sg8
F2.0
sbag1
(cfeatures
NearestScaredGhostFeature
p13
g3
Ntp14
Rp15
(dp16
g7
F-1.691372971007386
sg8
F6.0
sbag1
(cfeatures
TotalFoodFeature
p17
g3
Ntp18
Rp19
(dp20
g7
F-2.058865573336516
sg8
I73
sbag1
(cfeatures
NearestFoodFeature
p21
g3
Ntp22
Rp23
(dp24
g7
F-1.1578369038033847
sg8
I18
sba.