(lp0
ccopy_reg
_reconstructor
p1
(cfeatures
NearestCapsuleFeature
p2
c__builtin__
object
p3
Ntp4
Rp5
(dp6
S'weight'
p7
F-2.217655299045105
sS'value'
p8
I31
sbag1
(cfeatures
NearestNormalGhostFeature
p9
g3
Ntp10
Rp11
(dp12
g7
F3.0420578425263556
sg8
I2
sbag1
(cfeatures
NearestScaredGhostFeature
p13
g3
Ntp14
Rp15
(dp16
g7
F-0.5082184221820732
sg8
I15
sbag1
(cfeatures
NearestFoodFeature
p17
g3
Ntp18
Rp19
(dp20
g7
F-3.3349665802982047
sg8
I2
sba.