(lp0
ccopy_reg
_reconstructor
p1
(cfeatures
NearestCapsuleFeature
p2
c__builtin__
object
p3
Ntp4
Rp5
(dp6
S'weight'
p7
F-2.7071131575856024
sS'value'
p8
I9
sbag1
(cfeatures
NearestNormalGhostFeature
p9
g3
Ntp10
Rp11
(dp12
g7
F1.3978566234047471
sg8
F1.0
sbag1
(cfeatures
NearestScaredGhostFeature
p13
g3
Ntp14
Rp15
(dp16
g7
F-3.5340694531118
sg8
I27
sbag1
(cfeatures
TotalFoodFeature
p17
g3
Ntp18
Rp19
(dp20
g7
F0.38921008433629556
sg8
I32
sbag1
(cfeatures
NearestFoodFeature
p21
g3
Ntp22
Rp23
(dp24
g7
F-0.4747936957623849
sg8
I1
sba.