(lp0
ccopy_reg
_reconstructor
p1
(cfeatures
NearestCapsuleFeature
p2
c__builtin__
object
p3
Ntp4
Rp5
(dp6
S'weight'
p7
F-1.432651236904428
sS'value'
p8
I13
sbag1
(cfeatures
NearestNormalGhostFeature
p9
g3
Ntp10
Rp11
(dp12
g7
F-0.01912003413955904
sg8
F2.0
sbag1
(cfeatures
NearestScaredGhostFeature
p13
g3
Ntp14
Rp15
(dp16
g7
F-1.7521883328944174
sg8
F6.0
sbag1
(cfeatures
TotalFoodFeature
p17
g3
Ntp18
Rp19
(dp20
g7
F-2.7987858096287277
sg8
I73
sbag1
(cfeatures
NearestFoodFeature
p21
g3
Ntp22
Rp23
(dp24
g7
F-1.3402829894644785
sg8
I18
sba.