(lp0
ccopy_reg
_reconstructor
p1
(cfeatures
NearestCapsuleFeature
p2
c__builtin__
object
p3
Ntp4
Rp5
(dp6
S'weight'
p7
F-0.0695099268695607
sS'value'
p8
I31
sbag1
(cfeatures
NearestNormalGhostFeature
p9
g3
Ntp10
Rp11
(dp12
g7
F8.341347980531047
sg8
I10
sbag1
(cfeatures
NearestScaredGhostFeature
p13
g3
Ntp14
Rp15
(dp16
g7
F-4.057143184585048
sg8
I31
sbag1
(cfeatures
NearestFoodFeature
p17
g3
Ntp18
Rp19
(dp20
g7
F-1.6364654785913526
sg8
I1
sba.